; Function Attrs: nounwind uwtable
define noalias nonnull ptr @l_Lean_SMap_fromHashMap___rarg___boxed(ptr noundef %0, ptr noundef %1, ptr noundef %2, ptr noundef %3) #0 {
  %5 = ptrtoint ptr %3 to i64
  %6 = lshr i64 %5, 1
  %7 = trunc i64 %6 to i8
  %8 = and i64 %5, 1
  %.not = icmp eq i64 %8, 0
  br i1 %.not, label %9, label %lean_dec.exit9

9:                                                ; preds = %4
  %10 = load i32, ptr %3, align 4, !tbaa !10
  %11 = icmp sgt i32 %10, 1
  br i1 %11, label %12, label %14, !prof !15

12:                                               ; preds = %9
  %13 = add nsw i32 %10, -1
  store i32 %13, ptr %3, align 4, !tbaa !10
  br label %lean_dec.exit9

14:                                               ; preds = %9
  %.not.i = icmp eq i32 %10, 0
  br i1 %.not.i, label %lean_dec.exit9, label %15

15:                                               ; preds = %14
  tail call void @lean_dec_ref_cold(ptr noundef nonnull %3) #3
  br label %lean_dec.exit9

lean_dec.exit9:                                   ; preds = %15, %14, %12, %4
  %16 = load ptr, ptr @l_Lean_SMap_instInhabited___rarg___closed__5, align 8, !tbaa !4
  tail call void @lean_inc_heartbeat() #3
  %17 = tail call noalias ptr @mi_malloc_small(i64 noundef 32) #3
  %18 = icmp eq ptr %17, null
  br i1 %18, label %19, label %l_Lean_SMap_fromHashMap___rarg.exit

19:                                               ; preds = %lean_dec.exit9
  tail call void @lean_internal_panic_out_of_memory() #4
  unreachable

l_Lean_SMap_fromHashMap___rarg.exit:              ; preds = %lean_dec.exit9
  %20 = getelementptr inbounds nuw i8, ptr %17, i64 4
  %21 = getelementptr inbounds nuw i8, ptr %17, i64 24
  store i64 0, ptr %21, align 8, !tbaa !8
  store i32 1, ptr %17, align 4, !tbaa !10
  store i32 131104, ptr %20, align 4
  %22 = getelementptr inbounds nuw i8, ptr %17, i64 8
  store ptr %2, ptr %22, align 8, !tbaa !4
  %23 = getelementptr inbounds nuw i8, ptr %17, i64 16
  store ptr %16, ptr %23, align 8, !tbaa !4
  store i8 %7, ptr %21, align 1, !tbaa !16
  %24 = ptrtoint ptr %1 to i64
  %25 = and i64 %24, 1
  %.not14 = icmp eq i64 %25, 0
  br i1 %.not14, label %26, label %lean_dec.exit8

26:                                               ; preds = %l_Lean_SMap_fromHashMap___rarg.exit
  %27 = load i32, ptr %1, align 4, !tbaa !10
  %28 = icmp sgt i32 %27, 1
  br i1 %28, label %29, label %31, !prof !15

29:                                               ; preds = %26
  %30 = add nsw i32 %27, -1
  store i32 %30, ptr %1, align 4, !tbaa !10
  br label %lean_dec.exit8

31:                                               ; preds = %26
  %.not.i10 = icmp eq i32 %27, 0
  br i1 %.not.i10, label %lean_dec.exit8, label %32

32:                                               ; preds = %31
  tail call void @lean_dec_ref_cold(ptr noundef nonnull %1) #3
  br label %lean_dec.exit8

lean_dec.exit8:                                   ; preds = %32, %31, %29, %l_Lean_SMap_fromHashMap___rarg.exit
  %33 = ptrtoint ptr %0 to i64
  %34 = and i64 %33, 1
  %.not15 = icmp eq i64 %34, 0
  br i1 %.not15, label %35, label %lean_dec.exit

35:                                               ; preds = %lean_dec.exit8
  %36 = load i32, ptr %0, align 4, !tbaa !10
  %37 = icmp sgt i32 %36, 1
  br i1 %37, label %38, label %40, !prof !15

38:                                               ; preds = %35
  %39 = add nsw i32 %36, -1
  store i32 %39, ptr %0, align 4, !tbaa !10
  br label %lean_dec.exit

40:                                               ; preds = %35
  %.not.i12 = icmp eq i32 %36, 0
  br i1 %.not.i12, label %lean_dec.exit, label %41

41:                                               ; preds = %40
  tail call void @lean_dec_ref_cold(ptr noundef nonnull %0) #3
  br label %lean_dec.exit

lean_dec.exit:                                    ; preds = %41, %40, %38, %lean_dec.exit8
  ret ptr %17
}